target datalayout = "e-m:e-p270:32:32-p271:32:32-p272:64:64-i64:64-i128:128-f80:128-n8:16:32:64-S128"
target triple = "x86_64-pc-linux-gnu"

; Function Attrs: nounwind uwtable
define internal i32 @pkey_ecx_derive448(ptr noundef %0, ptr noundef %1, ptr noundef %2) #0 {
  %4 = alloca i32, align 4
  %5 = alloca ptr, align 8
  %6 = alloca ptr, align 8
  %7 = alloca ptr, align 8
  %8 = alloca ptr, align 8
  %9 = alloca ptr, align 8
  %10 = alloca i32, align 4
  store ptr %0, ptr %5, align 8, !tbaa !70
  store ptr %1, ptr %6, align 8, !tbaa !14
  store ptr %2, ptr %7, align 8, !tbaa !52
  call void @llvm.lifetime.start.p0(i64 8, ptr %8) #4
  call void @llvm.lifetime.start.p0(i64 8, ptr %9) #4
  %11 = load ptr, ptr %5, align 8, !tbaa !70
  %12 = load ptr, ptr %6, align 8, !tbaa !14
  %13 = load ptr, ptr %7, align 8, !tbaa !52
  %14 = call i32 @validate_ecx_derive(ptr noundef %11, ptr noundef %12, ptr noundef %13, ptr noundef %8, ptr noundef %9)
  %15 = icmp ne i32 %14, 0
  br i1 %15, label %16, label %25

16:                                               ; preds = %3
  %17 = load ptr, ptr %6, align 8, !tbaa !14
  %18 = icmp ne ptr %17, null
  br i1 %18, label %19, label %26

19:                                               ; preds = %16
  %20 = load ptr, ptr %6, align 8, !tbaa !14
  %21 = load ptr, ptr %8, align 8, !tbaa !14
  %22 = load ptr, ptr %9, align 8, !tbaa !14
  %23 = call i32 @ossl_x448(ptr noundef %20, ptr noundef %21, ptr noundef %22)
  %24 = icmp eq i32 %23, 0
  br i1 %24, label %25, label %26

25:                                               ; preds = %19, %3
  store i32 0, ptr %4, align 4
  store i32 1, ptr %10, align 4
  br label %28

26:                                               ; preds = %19, %16
  %27 = load ptr, ptr %7, align 8, !tbaa !52
  store i64 56, ptr %27, align 8, !tbaa !46
  store i32 1, ptr %4, align 4
  store i32 1, ptr %10, align 4
  br label %28

28:                                               ; preds = %26, %25
  call void @llvm.lifetime.end.p0(i64 8, ptr %9) #4
  call void @llvm.lifetime.end.p0(i64 8, ptr %8) #4
  %29 = load i32, ptr %4, align 4
  ret i32 %29
}