; Function Attrs: nounwind uwtable
define internal range(i32 0, 2) i32 @pkey_ecx_derive448(ptr noundef readonly captures(none) %0, ptr noundef %1, ptr noundef writeonly captures(none) %2) #0 {
  %4 = alloca ptr, align 8
  %5 = alloca ptr, align 8
  call void @llvm.lifetime.start.p0(i64 8, ptr nonnull %4) #8
  call void @llvm.lifetime.start.p0(i64 8, ptr nonnull %5) #8
  %6 = call fastcc i32 @validate_ecx_derive(ptr noundef %0, ptr noundef %4, ptr noundef %5)
  %.not = icmp eq i32 %6, 0
  br i1 %.not, label %14, label %7

7:                                                ; preds = %3
  %.not7 = icmp eq ptr %1, null
  br i1 %.not7, label %13, label %8

8:                                                ; preds = %7
  %9 = load ptr, ptr %4, align 8, !tbaa !8
  %10 = load ptr, ptr %5, align 8, !tbaa !8
  %11 = tail call i32 @ossl_x448(ptr noundef nonnull %1, ptr noundef %9, ptr noundef %10) #8
  %12 = icmp eq i32 %11, 0
  br i1 %12, label %14, label %13

13:                                               ; preds = %8, %7
  store i64 56, ptr %2, align 8, !tbaa !35
  br label %14

14:                                               ; preds = %3, %8, %13
  %.0 = phi i32 [ 1, %13 ], [ 0, %8 ], [ 0, %3 ]
  call void @llvm.lifetime.end.p0(i64 8, ptr nonnull %5) #8
  call void @llvm.lifetime.end.p0(i64 8, ptr nonnull %4) #8
  ret i32 %.0
}